target datalayout = "e-m:e-p270:32:32-p271:32:32-p272:64:64-i64:64-i128:128-f80:128-n8:16:32:64-S128"
target triple = "x86_64-pc-linux-gnu"

%class.rational = type { %class.mpq }
%class.mpq = type { %class.mpz, %class.mpz }
%class.mpz = type { i32, i8, ptr }
%"class.opt::cores" = type <{ ptr, ptr, ptr, %class.random_gen, [4 x i8], %class.rational, %class.vector, %class.obj_map, i32, i32, i8, [3 x i8], i32, i32, i8, [3 x i8] }>
%class.random_gen = type { i32 }
%class.vector = type { ptr }
%class.obj_map = type { %class.core_hashtable }
%class.core_hashtable = type <{ ptr, i32, i32, i32, [4 x i8] }>
%class.params_ref = type { ptr }
%struct.opt_params = type { ptr, %class.params_ref }

@.str.18 = private unnamed_addr constant [4 x i8] c"opt\00", align 1
@.str.19 = private unnamed_addr constant [18 x i8] c"maxres.hill_climb\00", align 1
@.str.20 = private unnamed_addr constant [21 x i8] c"maxres.max_num_cores\00", align 1
@.str.21 = private unnamed_addr constant [21 x i8] c"maxres.max_core_size\00", align 1
@.str.22 = private unnamed_addr constant [19 x i8] c"enable_core_rotate\00", align 1

; Function Attrs: inlinehint mustprogress nounwind uwtable
define linkonce_odr hidden void @_ZN10opt_paramsD2Ev(ptr noundef nonnull align 8 dereferenceable(16) %0) unnamed_addr #8 comdat align 2 {
  %2 = alloca ptr, align 8
  store ptr %0, ptr %2, align 8, !tbaa !172
  %3 = load ptr, ptr %2, align 8
  %4 = getelementptr inbounds nuw %struct.opt_params, ptr %3, i32 0, i32 1
  call void @_ZN10params_refD1Ev(ptr noundef nonnull align 8 dereferenceable(8) %4) #3
  ret void
}

; Function Attrs: mustprogress uwtable
define linkonce_odr hidden noundef zeroext i1 @_ZNK10opt_params18enable_core_rotateEv(ptr noundef nonnull align 8 dereferenceable(16) %0) #6 comdat align 2 {
  %2 = alloca ptr, align 8
  store ptr %0, ptr %2, align 8, !tbaa !172
  %3 = load ptr, ptr %2, align 8
  %4 = getelementptr inbounds nuw %struct.opt_params, ptr %3, i32 0, i32 0
  %5 = load ptr, ptr %4, align 8, !tbaa !174
  %6 = getelementptr inbounds nuw %struct.opt_params, ptr %3, i32 0, i32 1
  %7 = call noundef zeroext i1 @_ZNK10params_ref8get_boolEPKcRKS_b(ptr noundef nonnull align 8 dereferenceable(8) %5, ptr noundef @.str.22, ptr noundef nonnull align 8 dereferenceable(8) %6, i1 noundef zeroext false)
  ret i1 %7
}

; Function Attrs: mustprogress uwtable
define linkonce_odr hidden noundef i32 @_ZNK10opt_params20maxres_max_core_sizeEv(ptr noundef nonnull align 8 dereferenceable(16) %0) #6 comdat align 2 {
  %2 = alloca ptr, align 8
  store ptr %0, ptr %2, align 8, !tbaa !172
  %3 = load ptr, ptr %2, align 8
  %4 = getelementptr inbounds nuw %struct.opt_params, ptr %3, i32 0, i32 0
  %5 = load ptr, ptr %4, align 8, !tbaa !174
  %6 = getelementptr inbounds nuw %struct.opt_params, ptr %3, i32 0, i32 1
  %7 = call noundef i32 @_ZNK10params_ref8get_uintEPKcRKS_j(ptr noundef nonnull align 8 dereferenceable(8) %5, ptr noundef @.str.21, ptr noundef nonnull align 8 dereferenceable(8) %6, i32 noundef 3)
  ret i32 %7
}

; Function Attrs: mustprogress uwtable
define linkonce_odr hidden noundef i32 @_ZNK10opt_params20maxres_max_num_coresEv(ptr noundef nonnull align 8 dereferenceable(16) %0) #6 comdat align 2 {
  %2 = alloca ptr, align 8
  store ptr %0, ptr %2, align 8, !tbaa !172
  %3 = load ptr, ptr %2, align 8
  %4 = getelementptr inbounds nuw %struct.opt_params, ptr %3, i32 0, i32 0
  %5 = load ptr, ptr %4, align 8, !tbaa !174
  %6 = getelementptr inbounds nuw %struct.opt_params, ptr %3, i32 0, i32 1
  %7 = call noundef i32 @_ZNK10params_ref8get_uintEPKcRKS_j(ptr noundef nonnull align 8 dereferenceable(8) %5, ptr noundef @.str.20, ptr noundef nonnull align 8 dereferenceable(8) %6, i32 noundef 200)
  ret i32 %7
}

; Function Attrs: mustprogress uwtable
define linkonce_odr hidden noundef zeroext i1 @_ZNK10opt_params17maxres_hill_climbEv(ptr noundef nonnull align 8 dereferenceable(16) %0) #6 comdat align 2 {
  %2 = alloca ptr, align 8
  store ptr %0, ptr %2, align 8, !tbaa !172
  %3 = load ptr, ptr %2, align 8
  %4 = getelementptr inbounds nuw %struct.opt_params, ptr %3, i32 0, i32 0
  %5 = load ptr, ptr %4, align 8, !tbaa !174
  %6 = getelementptr inbounds nuw %struct.opt_params, ptr %3, i32 0, i32 1
  %7 = call noundef zeroext i1 @_ZNK10params_ref8get_boolEPKcRKS_b(ptr noundef nonnull align 8 dereferenceable(8) %5, ptr noundef @.str.19, ptr noundef nonnull align 8 dereferenceable(8) %6, i1 noundef zeroext true)
  ret i1 %7
}

; Function Attrs: mustprogress uwtable
define linkonce_odr hidden void @_ZN10opt_paramsC2ERK10params_ref(ptr noundef nonnull align 8 dereferenceable(16) %0, ptr noundef nonnull align 8 dereferenceable(8) %1) unnamed_addr #6 comdat align 2 {
  %3 = alloca ptr, align 8
  %4 = alloca ptr, align 8
  store ptr %0, ptr %3, align 8, !tbaa !172
  store ptr %1, ptr %4, align 8, !tbaa !170
  %5 = load ptr, ptr %3, align 8
  %6 = getelementptr inbounds nuw %struct.opt_params, ptr %5, i32 0, i32 0
  %7 = load ptr, ptr %4, align 8, !tbaa !170
  store ptr %7, ptr %6, align 8, !tbaa !170
  %8 = getelementptr inbounds nuw %struct.opt_params, ptr %5, i32 0, i32 1
  call void @_ZN7gparams10get_moduleEPKc(ptr dead_on_unwind writable sret(%class.params_ref) align 8 %8, ptr noundef @.str.18)
  ret void
}

; Function Attrs: mustprogress uwtable
define hidden void @_ZN3opt5cores11updt_paramsER10params_ref(ptr noundef nonnull align 8 dereferenceable(117) %0, ptr noundef nonnull align 8 dereferenceable(8) %1) #6 align 2 personality ptr @__gxx_personality_v0 {
  %3 = alloca ptr, align 8
  %4 = alloca ptr, align 8
  %5 = alloca %struct.opt_params, align 8
  %6 = alloca ptr, align 8
  %7 = alloca i32, align 4
  store ptr %0, ptr %3, align 8, !tbaa !28
  store ptr %1, ptr %4, align 8, !tbaa !170
  %8 = load ptr, ptr %3, align 8
  call void @llvm.lifetime.start.p0(i64 16, ptr %5) #3
  %9 = load ptr, ptr %4, align 8, !tbaa !170
  call void @_ZN10opt_paramsC2ERK10params_ref(ptr noundef nonnull align 8 dereferenceable(16) %5, ptr noundef nonnull align 8 dereferenceable(8) %9)
  %10 = invoke noundef zeroext i1 @_ZNK10opt_params17maxres_hill_climbEv(ptr noundef nonnull align 8 dereferenceable(16) %5)
          to label %11 unwind label %24

11:                                               ; preds = %2
  %12 = getelementptr inbounds nuw %"class.opt::cores", ptr %8, i32 0, i32 10
  %13 = zext i1 %10 to i8
  store i8 %13, ptr %12, align 8, !tbaa !51
  %14 = invoke noundef i32 @_ZNK10opt_params20maxres_max_num_coresEv(ptr noundef nonnull align 8 dereferenceable(16) %5)
          to label %15 unwind label %24

15:                                               ; preds = %11
  %16 = getelementptr inbounds nuw %"class.opt::cores", ptr %8, i32 0, i32 12
  store i32 %14, ptr %16, align 4, !tbaa !52
  %17 = invoke noundef i32 @_ZNK10opt_params20maxres_max_core_sizeEv(ptr noundef nonnull align 8 dereferenceable(16) %5)
          to label %18 unwind label %24

18:                                               ; preds = %15
  %19 = getelementptr inbounds nuw %"class.opt::cores", ptr %8, i32 0, i32 13
  store i32 %17, ptr %19, align 8, !tbaa !53
  %20 = invoke noundef zeroext i1 @_ZNK10opt_params18enable_core_rotateEv(ptr noundef nonnull align 8 dereferenceable(16) %5)
          to label %21 unwind label %24

21:                                               ; preds = %18
  %22 = getelementptr inbounds nuw %"class.opt::cores", ptr %8, i32 0, i32 14
  %23 = zext i1 %20 to i8
  store i8 %23, ptr %22, align 4, !tbaa !54
  call void @_ZN10opt_paramsD2Ev(ptr noundef nonnull align 8 dereferenceable(16) %5) #3
  call void @llvm.lifetime.end.p0(i64 16, ptr %5) #3
  ret void

24:                                               ; preds = %18, %15, %11, %2
  %25 = landingpad { ptr, i32 }
          cleanup
  %26 = extractvalue { ptr, i32 } %25, 0
  store ptr %26, ptr %6, align 8
  %27 = extractvalue { ptr, i32 } %25, 1
  store i32 %27, ptr %7, align 4
  call void @_ZN10opt_paramsD2Ev(ptr noundef nonnull align 8 dereferenceable(16) %5) #3
  call void @llvm.lifetime.end.p0(i64 16, ptr %5) #3
  br label %28

28:                                               ; preds = %24
  %29 = load ptr, ptr %6, align 8
  %30 = load i32, ptr %7, align 4
  %31 = insertvalue { ptr, i32 } poison, ptr %29, 0
  %32 = insertvalue { ptr, i32 } %31, i32 %30, 1
  resume { ptr, i32 } %32
}