; Function Attrs: mustprogress uwtable
define hidden void @_ZN3opt5cores11updt_paramsER10params_ref(ptr noundef nonnull writeonly align 8 captures(none) dereferenceable(117) %0, ptr noundef nonnull align 8 dereferenceable(8) %1) local_unnamed_addr #4 align 2 personality ptr @__gxx_personality_v0 {
  %3 = alloca %struct.opt_params, align 8
  call void @llvm.lifetime.start.p0(i64 16, ptr nonnull %3) #22
  store ptr %1, ptr %3, align 8, !tbaa !200
  %4 = getelementptr inbounds nuw i8, ptr %3, i64 8
  call void @_ZN7gparams10get_moduleEPKc(ptr dead_on_unwind nonnull writable sret(%class.params_ref) align 8 %4, ptr noundef nonnull @.str.18)
  %5 = load ptr, ptr %3, align 8, !tbaa !202
  %6 = invoke noundef zeroext i1 @_ZNK10params_ref8get_boolEPKcRKS_b(ptr noundef nonnull align 8 dereferenceable(8) %5, ptr noundef nonnull @.str.19, ptr noundef nonnull align 8 dereferenceable(8) %4, i1 noundef zeroext true)
          to label %_ZNK10opt_params17maxres_hill_climbEv.exit unwind label %19

_ZNK10opt_params17maxres_hill_climbEv.exit:       ; preds = %2
  %7 = getelementptr inbounds nuw i8, ptr %0, i64 104
  %8 = zext i1 %6 to i8
  store i8 %8, ptr %7, align 8, !tbaa !41
  %9 = load ptr, ptr %3, align 8, !tbaa !202
  %10 = invoke noundef i32 @_ZNK10params_ref8get_uintEPKcRKS_j(ptr noundef nonnull align 8 dereferenceable(8) %9, ptr noundef nonnull @.str.20, ptr noundef nonnull align 8 dereferenceable(8) %4, i32 noundef 200)
          to label %_ZNK10opt_params20maxres_max_num_coresEv.exit unwind label %19

_ZNK10opt_params20maxres_max_num_coresEv.exit:    ; preds = %_ZNK10opt_params17maxres_hill_climbEv.exit
  %11 = getelementptr inbounds nuw i8, ptr %0, i64 108
  store i32 %10, ptr %11, align 4, !tbaa !42
  %12 = load ptr, ptr %3, align 8, !tbaa !202
  %13 = invoke noundef i32 @_ZNK10params_ref8get_uintEPKcRKS_j(ptr noundef nonnull align 8 dereferenceable(8) %12, ptr noundef nonnull @.str.21, ptr noundef nonnull align 8 dereferenceable(8) %4, i32 noundef 3)
          to label %_ZNK10opt_params20maxres_max_core_sizeEv.exit unwind label %19

_ZNK10opt_params20maxres_max_core_sizeEv.exit:    ; preds = %_ZNK10opt_params20maxres_max_num_coresEv.exit
  %14 = getelementptr inbounds nuw i8, ptr %0, i64 112
  store i32 %13, ptr %14, align 8, !tbaa !43
  %15 = load ptr, ptr %3, align 8, !tbaa !202
  %16 = invoke noundef zeroext i1 @_ZNK10params_ref8get_boolEPKcRKS_b(ptr noundef nonnull align 8 dereferenceable(8) %15, ptr noundef nonnull @.str.22, ptr noundef nonnull align 8 dereferenceable(8) %4, i1 noundef zeroext false)
          to label %_ZNK10opt_params18enable_core_rotateEv.exit unwind label %19

_ZNK10opt_params18enable_core_rotateEv.exit:      ; preds = %_ZNK10opt_params20maxres_max_core_sizeEv.exit
  %17 = getelementptr inbounds nuw i8, ptr %0, i64 116
  %18 = zext i1 %16 to i8
  store i8 %18, ptr %17, align 4, !tbaa !44
  call void @_ZN10params_refD1Ev(ptr noundef nonnull align 8 dereferenceable(8) %4) #22
  call void @llvm.lifetime.end.p0(i64 16, ptr nonnull %3) #22
  ret void

19:                                               ; preds = %_ZNK10opt_params20maxres_max_core_sizeEv.exit, %_ZNK10opt_params20maxres_max_num_coresEv.exit, %_ZNK10opt_params17maxres_hill_climbEv.exit, %2
  %20 = landingpad { ptr, i32 }
          cleanup
  call void @_ZN10params_refD1Ev(ptr noundef nonnull align 8 dereferenceable(8) %4) #22
  call void @llvm.lifetime.end.p0(i64 16, ptr nonnull %3) #22
  resume { ptr, i32 } %20
}